target datalayout = "e-m:e-p270:32:32-p271:32:32-p272:64:64-i64:64-i128:128-f80:128-n8:16:32:64-S128"
target triple = "x86_64-pc-linux-gnu"

%"class.RangeCheckEliminator::Bound" = type { i32, ptr, i32, ptr }

; Function Attrs: mustprogress nounwind uwtable
define hidden void @_ZN20RangeCheckEliminator5BoundC2Ev(ptr noundef nonnull align 8 dereferenceable(32) %0) unnamed_addr #1 align 2 {
  %2 = alloca ptr, align 8
  store ptr %0, ptr %2, align 8
  %3 = load ptr, ptr %2, align 8
  %4 = getelementptr inbounds %"class.RangeCheckEliminator::Bound", ptr %3, i32 0, i32 2
  store i32 -2147483648, ptr %4, align 8
  %5 = getelementptr inbounds %"class.RangeCheckEliminator::Bound", ptr %3, i32 0, i32 0
  store i32 2147483647, ptr %5, align 8
  %6 = getelementptr inbounds %"class.RangeCheckEliminator::Bound", ptr %3, i32 0, i32 3
  store ptr null, ptr %6, align 8
  %7 = getelementptr inbounds %"class.RangeCheckEliminator::Bound", ptr %3, i32 0, i32 1
  store ptr null, ptr %7, align 8
  ret void
}