; Function Attrs: mustprogress nofree norecurse nosync nounwind willreturn memory(argmem: write) uwtable
define hidden void @_ZN20RangeCheckEliminator5BoundC2Ev(ptr nocapture noundef nonnull writeonly align 8 dereferenceable(32) %0) unnamed_addr #4 align 2 {
  %2 = getelementptr inbounds i8, ptr %0, i64 16
  store i32 -2147483648, ptr %2, align 8
  store i32 2147483647, ptr %0, align 8
  %3 = getelementptr inbounds i8, ptr %0, i64 24
  store ptr null, ptr %3, align 8
  %4 = getelementptr inbounds i8, ptr %0, i64 8
  store ptr null, ptr %4, align 8
  ret void
}